(dp1
S'output'
p2
S"<type 'exceptions.TypeError'> startswith first arg must be str, unicode, or tuple, not NoneType"
p3
sS'layer'
p4
S'/home/chaitanya/Desktop/web2py/applications/quiz/views/default/start_quiz.html'
p5
sS'code'
p6
S'dic=[]\nfor i in range(count):\n    dic.append(rec[i])\n    pass\nresponse.write(\'\\n\', escape=False)\nsorted_list = sorted(dic, key=lambda k: k[\'score\'])\nresponse.write(\'\\n<html>\\n\\t<title>\\n\\tQUIZ\\n\\t</title>\\n\\t<script>\\n\\tfunction loadXMLDoc()\\n\\t{\\n\\t\\tvar xmlhttp;\\n\\t\\tif (window.XMLHttpRequest)\\n\\t\\t{ xmlhttp=new XMLHttpRequest();\\n\\t\\t}\\n\\t\\txmlhttp.onreadystatechange=function()\\n\\t\\t{  if (xmlhttp.readyState==4 && xmlhttp.status==200)\\n\\t\\t    {  document.getElementById("myDiv").innerHTML=xmlhttp.responseText;\\n\\t\\t    }\\n\\t\\t}\\n\\t\\tvar url = "http://127.0.0.1:8000/quiz/default/start_quiz/"\\n\\t\\tvar arg = document.getElementById("search").value\\n\\t\\tvar url = url.concat(arg);\\n\\t\\txmlhttp.open("GET",url,true);\\n\\t\\txmlhttp.send();\\n\\t}\\n\\t</script>\\n\\t<body style="background-color:#999;">\\n\\t\\t  <div style="background-color:#999;margin:0;height:5%;">\\n\\t\\t\\t<h5 style="float:left;margin:0;padding-right:100px;padding-left:500px;padding-top:5px;">\\n\\t\\t\\tWelcome To Quiz\\n\\t\\t\\t</h5>\\n\\t\\t\\t<h6 style="text-align:right;margin:0;padding-right:50px;padding-top:5px;">\\n\\t\\t\\t\', escape=False)\nresponse.write(logout)\nresponse.write(\'\\n\\t\\t\\t</h6>\\n\\t\\t  </div>\\n\\t\\t\\t<div style="padding-top:0px;">\\n\\t\\t\\t\\t<div id="lef" align:center; style="background-color:red;">\\n\\t\\t\\t\\t<form>\\n\\t\\t\\t\\t<center>Search by Name: <input id="search" type="text" style="width:33%;" onkeyup="loadXMLDoc();"></input></center>\\n\\t\\t\\t\\t</form>\\n\\t\\t\\t\\t<h4 style="margin:0;padding-right:20px;"><center>Stats</center></h4>\\n\\t\\t\\t\\t<hr>\\n\\t\\t\\t\\t<h5 style="margin:0;padding-bottom:5px;">\\n\\t\\t\\t\\t<div style="float:left;width:20%;">Rank</div>\\n\\t\\t\\t\\t<div style="float:left;width:25%;padding-left:10px;">Name</div>\\n\\t\\t\\t\\t<div style="float:left;width:25%;padding-left:55px;">Score</div><br><hr>\\n\\t\\t\\t\\t</h5>\\n\\t\\t\\t\\t<div id="score_card">\\n\\t\\t\\t\\t\', escape=False)\nfor i in range(count):\n    response.write(\'\\n\\t\\t\\t\\t\\t\', escape=False)\n    j=count-i-1\n    response.write(\'\\n\\t\\t\\t\\t\\t\', escape=False)\n    if rec[j].name==name:\n        response.write(\'\\n\\t\\t\\t\\t\\t    \', escape=False)\n        pos=i+1\n        response.write(\'\\n\\t\\t\\t\\t\\t\', escape=False)\n        pass\n    response.write(\'\\n\\t\\t\\t\\t\\t\', escape=False)\n    if(rec[j].name.startswith(session.arguments)):\n        response.write(\'\\n\\t\\t\\t\\t\\t\\t<div style="float:left;width:10%;">\', escape=False)\n        response.write(i+1)\n        response.write(\'.</div>\\n\\t\\t\\t\\t\\t\\t<div style="float:left;width:25%;padding-left:40px;">\', escape=False)\n        response.write(rec[j].name)\n        response.write(\'</div>\\n\\t\\t\\t\\t\\t\\t<div style="float:left;width:25%;padding-left:55px;">\', escape=False)\n        response.write(rec[j].score)\n        response.write(\'</div><br>\\n\\t\\t\\t\\t\\t\', escape=False)\n        pass\n    response.write(\'\\n\\t\\t\\t\\t \', escape=False)\n    pass\nresponse.write(\'\\n\\t\\t\\t\\t </div>\\n\\t\\t\\t\\t</div>\\n\\t\\t\\t\\t<div id="cen" align:center; style="background-color:#E7E7E7;">\\n\\t\\t\\t\\t\\t\', escape=False)\nq_no=done+1\nresponse.write(\'\\n\\t\\t  \\t\\t\\t<center><h3>Q\', escape=False)\nresponse.write(q_no)\nresponse.write(\'. \', escape=False)\nresponse.write(q)\nresponse.write(\'\\n\\t\\t\\t\\t\\t</h3></center>\\n\\t\\t\\t\\t\\t<br>\\n\\t\\t\\t\\t\\t<div id="null"></div>\\n      <div id="optiona" class="op" style="cursor:pointer;" onclick=\\\'window.location="\', escape=False)\nresponse.write(URL(\'default\',\'start_quiz/optiona\'))\nresponse.write(\'";\\\'>A. \', escape=False)\nresponse.write(oa)\nresponse.write(\'</div>\\n      <div id="optionb" class="op" style="cursor:pointer;" onclick=\\\'window.location="\', escape=False)\nresponse.write(URL(\'default\',\'start_quiz/optionb\'))\nresponse.write(\'";\\\'>B. \', escape=False)\nresponse.write(ob)\nresponse.write(\'</div><br><br><div id="null"></div>\\n      <div id="optionc" class="op" style="cursor:pointer;" onclick=\\\'window.location="\', escape=False)\nresponse.write(URL(\'default\',\'start_quiz/optionc\'))\nresponse.write(\'";\\\'>C. \', escape=False)\nresponse.write(oc)\nresponse.write(\'</div>\\n      <div id="optiond" class="op" style="cursor:pointer;" onclick=\\\'window.location="\', escape=False)\nresponse.write(URL(\'default\',\'start_quiz/optiond\'))\nresponse.write(\'";\\\'>D. \', escape=False)\nresponse.write(od)\nresponse.write(\'</div>\\n\\t\\t\\t\\t<div><br><br><hr width="63%"></div>\\n\\t\\t\\t\\t<center><h5>Need help? No problem you still have :</h5></center>\\n\\t\\t\\t\\t<br>\\n\\t\\t\\t\\t<div id="null"></div>\\n\\t<div id="optiona" class="op" style="cursor:pointer;" onclick=\\\'window.location="\', escape=False)\nresponse.write(URL(\'default\',\'start_quiz/5050\'))\nresponse.write(\'";\\\'>50/50 * \', escape=False)\nresponse.write(fifty)\nresponse.write(\'</div>\\n\\t<div id="optionb" class="op" style="cursor:pointer;" onclick=\\\'window.location="\', escape=False)\nresponse.write(URL(\'default\',\'start_quiz/poll\'))\nresponse.write(\'";\\\'>Audience poll * \', escape=False)\nresponse.write(poll)\nresponse.write(\'</div><br><br><div id="null"></div>\\n\\n\\t\\t\\t\\t<!--div>For hints.....</div-->\\n      \\t\\t\\t\\t</div>\\n\\t\\t\\t\\t<div id="rig" align:center; style="background-color:yellow;">\\n\\t\\t\\t\\t\\t<div id="score" style="background-color:#333;">\\n\\t\\t\\t\\t\\t<h5 style="margin:0;color:white">\\n\\t\\t\\t\\t\\t<center style="padding-top:8px;">Hai \', escape=False)\nresponse.write(name)\nresponse.write(\'</center>\\n\\t\\t\\t\\t\\t<br>\\n\\t\\t\\t\\t\\tTotal Questions : 20\\n\\t\\t\\t\\t\\t<br><br>\\n\\t\\t\\t\\t\\tCorrectly Done : \', escape=False)\nresponse.write(done)\nresponse.write(\'\\n\\t\\t\\t\\t\\t<br></br>\\n\\t\\t\\t\\t\\tYour Score : \', escape=False)\nresponse.write(score)\nresponse.write(\'\\n\\t\\t\\t\\t\\t<br><br>\\n\\t\\t\\t\\t\\tYour position : \', escape=False)\nresponse.write(pos)\nresponse.write(\'\\n\\t\\t\\t\\t\\t</h5>\\n\\t\\t\\t\\t\\t</div>\\n\\t\\t\\t\\t\\t<h5 style="margin:0;padding-top:8px;"><center>Get Tools</center>\\n\\t\\t\\t\\t\\t<br>\\n\\t\\t\\t\\t\\t<span>50/50    @ 5 points</span>\\n\\t\\t\\t\\t\\t<br><br>\\n\\t\\t\\t\\t\\t<span>Audience Poll @ 8 points</span>\\n\\t\\t\\t\\t\\t</h5>\\n\\t\\t\\t\\t</div>\\n\\n\\t\\t\\t</div>\\n\\t\\t\\t<div id="dow" style="padding-top:0px;width:100%;">\\n\\t\\t\\t          <h5 style="text-align:center;">\\n\\t\\t\\t\\t  \\xc2\\xa9Winux 2014\\n\\t\\t\\t\\t  </h5>\\n\\t\\t\\t</div>\\n\\t</body>\\n<style>\\na{ text-decoration:none;\\n}\\nspan{\\ncursor:pointer;\\n}\\nspan:hover{color:blue;}\\nbody{\\nwidth:100%;\\nheight:95%;\\nmargin: 0;\\n} \\n#lef,#cen,#rig{\\nfloat:left;\\nheight:95%;\\n}\\n#lef{\\nwidth:20%;\\n}\\n#cen{\\nwidth:60%;\\n}\\n#rig{\\nwidth:20%;\\n}\\n#score{\\nwidth:100%;\\nheight:33%;\\n}\\n#dow{\\nheight:12%;\\n}\\n#null{\\nfloat:left;\\nwidth:10%;\\nheight:5%;\\npadding-left:30px;\\npadding-right:30px;\\nmargin:0;\\n}\\n#optiona{\\nfloat:left;\\nwidth:20%;\\nheight:5%;\\npadding-left:80px;\\npadding-right:30px;\\npadding-top:5px;\\nmargin:0;\\n}\\n#optionb{\\nfloat:left;\\nwidth:20%;\\nheight:5%;\\npadding-left:60px;\\npadding-right:30px;\\npadding-top:5px;\\nmargin:0;\\n}\\n#optionc{\\nfloat:left;\\nwidth:20%;\\nheight:5%;\\npadding-left:80px;\\npadding-right:30px;\\npadding-top:5px;\\nmargin:0;\\n}\\n#optiond{\\nfloat:left;\\nwidth:20%;\\nheight:5%;\\npadding-left:60px;\\npadding-right:30px;\\npadding-top:5px;\\nmargin:0;\\n}\\nh3{font-family:"Times New Roman", Times, serif}\\n.op:hover{background-color:blue;}\\n</style>\\n</html>\\n\', escape=False)'
p7
sS'snapshot'
p8
(dp9
S'exception'
p10
(dp11
S'__hash__'
p12
S"<method-wrapper '__hash__' of exceptions.TypeError object>"
p13
sS'__setattr__'
p14
S"<method-wrapper '__setattr__' of exceptions.TypeError object>"
p15
sS'__reduce_ex__'
p16
S'<built-in method __reduce_ex__ of exceptions.TypeError object>'
p17
sS'__getslice__'
p18
S"<method-wrapper '__getslice__' of exceptions.TypeError object>"
p19
sS'__getitem__'
p20
S"<method-wrapper '__getitem__' of exceptions.TypeError object>"
p21
sS'__setstate__'
p22
S'<built-in method __setstate__ of exceptions.TypeError object>'
p23
sS'args'
p24
S"('startswith first arg must be str, unicode, or tuple, not NoneType',)"
p25
sS'__reduce__'
p26
S'<built-in method __reduce__ of exceptions.TypeError object>'
p27
sS'__str__'
p28
S"<method-wrapper '__str__' of exceptions.TypeError object>"
p29
sS'__format__'
p30
S'<built-in method __format__ of exceptions.TypeError object>'
p31
sS'__getattribute__'
p32
S"<method-wrapper '__getattribute__' of exceptions.TypeError object>"
p33
sS'__class__'
p34
S"<type 'exceptions.TypeError'>"
p35
sS'__unicode__'
p36
S'<built-in method __unicode__ of exceptions.TypeError object>'
p37
sS'__delattr__'
p38
S"<method-wrapper '__delattr__' of exceptions.TypeError object>"
p39
sS'__subclasshook__'
p40
S'<built-in method __subclasshook__ of type object>'
p41
sS'__repr__'
p42
S"<method-wrapper '__repr__' of exceptions.TypeError object>"
p43
sS'__dict__'
p44
S'{}'
p45
sS'__sizeof__'
p46
S'<built-in method __sizeof__ of exceptions.TypeError object>'
p47
sS'__doc__'
p48
S"'Inappropriate argument type.'"
p49
sS'__init__'
p50
S"<method-wrapper '__init__' of exceptions.TypeError object>"
p51
sS'__new__'
p52
S'<built-in method __new__ of type object>'
p53
ssS'evalue'
p54
S'startswith first arg must be str, unicode, or tuple, not NoneType'
p55
sS'request'
p56
cgluon.html
XML_unpickle
p57
(S's\x01[\x00\x00<div><table><tr><td style="font-weight:bold;vertical-align:top;">ajax</td><td style="vertical-align:top;">:</td><td><div>False</div></td></tr><tr><td style="font-weight:bold;vertical-align:top;">application</td><td style="vertical-align:top;">:</td><td><div>quiz</div></td></tr><tr><td style="font-weight:bold;vertical-align:top;">args</td><td style="vertical-align:top;">:</td><td><div><table></table></div></td></tr><tr><td style="font-weight:bold;vertical-align:top;">cid</td><td style="vertical-align:top;">:</td><td><div>None</div></td></tr><tr><td style="font-weight:bold;vertical-align:top;">client</td><td style="vertical-align:top;">:</td><td><div>127.0.0.1</div></td></tr><tr><td style="font-weight:bold;vertical-align:top;">controller</td><td style="vertical-align:top;">:</td><td><div>default</div></td></tr><tr><td style="font-weight:bold;vertical-align:top;">cookies</td><td style="vertical-align:top;">:</td><td><div><table><tr><td style="font-weight:bold;vertical-align:top;">session_id_admin</td><td style="vertical-align:top;">:</td><td><div>127.0.0.1-77f1b8ff-77c6-47bf-b4e2-8cf637c09c60<table><tr><td style="font-weight:bold;vertical-align:top;">comment</td><td style="vertical-align:top;">:</td><td><div></div></td></tr><tr><td style="font-weight:bold;vertical-align:top;">domain</td><td style="vertical-align:top;">:</td><td><div></div></td></tr><tr><td style="font-weight:bold;vertical-align:top;">expires</td><td style="vertical-align:top;">:</td><td><div></div></td></tr><tr><td style="font-weight:bold;vertical-align:top;">httponly</td><td style="vertical-align:top;">:</td><td><div></div></td></tr><tr><td style="font-weight:bold;vertical-align:top;">max-age</td><td style="vertical-align:top;">:</td><td><div></div></td></tr><tr><td style="font-weight:bold;vertical-align:top;">path</td><td style="vertical-align:top;">:</td><td><div></div></td></tr><tr><td style="font-weight:bold;vertical-align:top;">secure</td><td style="vertical-align:top;">:</td><td><div></div></td></tr><tr><td style="font-weight:bold;vertical-align:top;">version</td><td style="vertical-align:top;">:</td><td><div></div></td></tr></table></div></td></tr><tr><td style="font-weight:bold;vertical-align:top;">session_id_quiz</td><td style="vertical-align:top;">:</td><td><div>127.0.0.1-e548dc24-ea96-41c0-9cc4-4d05d231a713<table><tr><td style="font-weight:bold;vertical-align:top;">comment</td><td style="vertical-align:top;">:</td><td><div></div></td></tr><tr><td style="font-weight:bold;vertical-align:top;">domain</td><td style="vertical-align:top;">:</td><td><div></div></td></tr><tr><td style="font-weight:bold;vertical-align:top;">expires</td><td style="vertical-align:top;">:</td><td><div></div></td></tr><tr><td style="font-weight:bold;vertical-align:top;">httponly</td><td style="vertical-align:top;">:</td><td><div></div></td></tr><tr><td style="font-weight:bold;vertical-align:top;">max-age</td><td style="vertical-align:top;">:</td><td><div></div></td></tr><tr><td style="font-weight:bold;vertical-align:top;">path</td><td style="vertical-align:top;">:</td><td><div></div></td></tr><tr><td style="font-weight:bold;vertical-align:top;">secure</td><td style="vertical-align:top;">:</td><td><div></div></td></tr><tr><td style="font-weight:bold;vertical-align:top;">version</td><td style="vertical-align:top;">:</td><td><div></div></td></tr></table></div></td></tr><tr><td style="font-weight:bold;vertical-align:top;">session_id_welcome</td><td style="vertical-align:top;">:</td><td><div>127.0.0.1-fb107e96-388a-42d6-95c0-c3f387ddb8db<table><tr><td style="font-weight:bold;vertical-align:top;">comment</td><td style="vertical-align:top;">:</td><td><div></div></td></tr><tr><td style="font-weight:bold;vertical-align:top;">domain</td><td style="vertical-align:top;">:</td><td><div></div></td></tr><tr><td style="font-weight:bold;vertical-align:top;">expires</td><td style="vertical-align:top;">:</td><td><div></div></td></tr><tr><td style="font-weight:bold;vertical-align:top;">httponly</td><td style="vertical-align:top;">:</td><td><div></div></td></tr><tr><td style="font-weight:bold;vertical-align:top;">max-age</td><td style="vertical-align:top;">:</td><td><div></div></td></tr><tr><td style="font-weight:bold;vertical-align:top;">path</td><td style="vertical-align:top;">:</td><td><div></div></td></tr><tr><td style="font-weight:bold;vertical-align:top;">secure</td><td style="vertical-align:top;">:</td><td><div></div></td></tr><tr><td style="font-weight:bold;vertical-align:top;">version</td><td style="vertical-align:top;">:</td><td><div></div></td></tr></table></div></td></tr></table></div></td></tr><tr><td style="font-weight:bold;vertical-align:top;">env</td><td style="vertical-align:top;">:</td><td><div><table><tr><td style="font-weight:bold;vertical-align:top;">HTTP_ACCEPT</td><td style="vertical-align:top;">:</td><td><div>text/html,application/xhtml+xml,application/xml;q=0.9,*/*;q=0.8</div></td></tr><tr><td style="font-weight:bold;vertical-align:top;">HTTP_ACCEPT_ENCODING</td><td style="vertical-align:top;">:</td><td><div>gzip, deflate</div></td></tr><tr><td style="font-weight:bold;vertical-align:top;">HTTP_ACCEPT_LANGUAGE</td><td style="vertical-align:top;">:</td><td><div>en-US,en;q=0.5</div></td></tr><tr><td style="font-weight:bold;vertical-align:top;">HTTP_CACHE_CONTROL</td><td style="vertical-align:top;">:</td><td><div>max-age=0</div></td></tr><tr><td style="font-weight:bold;vertical-align:top;">HTTP_CONNECTION</td><td style="vertical-align:top;">:</td><td><div>keep-alive</div></td></tr><tr><td style="font-weight:bold;vertical-align:top;">HTTP_COOKIE</td><td style="vertical-align:top;">:</td><td><div>session_id_welcome=127.0.0.1-fb107e96-388a-42d6-95c0-c3f387ddb8db; session_id_quiz=127.0.0.1-e548dc24-ea96-41c0-9cc4-4d05d231a713; session_id_admin=127.0.0.1-77f1b8ff-77c6-47bf-b4e2-8cf637c09c60</div></td></tr><tr><td style="font-weight:bold;vertical-align:top;">HTTP_HOST</td><td style="vertical-align:top;">:</td><td><div>127.0.0.1:8000</div></td></tr><tr><td style="font-weight:bold;vertical-align:top;">HTTP_REFERER</td><td style="vertical-align:top;">:</td><td><div>http://127.0.0.1:8000/quiz/default/start_quiz</div></td></tr><tr><td style="font-weight:bold;vertical-align:top;">HTTP_USER_AGENT</td><td style="vertical-align:top;">:</td><td><div>Mozilla/5.0 (X11; Ubuntu; Linux x86_64; rv:28.0) Gecko/20100101 Firefox/28.0</div></td></tr><tr><td style="font-weight:bold;vertical-align:top;">PATH_INFO</td><td style="vertical-align:top;">:</td><td><div>/quiz/default/start_quiz</div></td></tr><tr><td style="font-weight:bold;vertical-align:top;">QUERY_STRING</td><td style="vertical-align:top;">:</td><td><div></div></td></tr><tr><td style="font-weight:bold;vertical-align:top;">REMOTE_ADDR</td><td style="vertical-align:top;">:</td><td><div>127.0.0.1</div></td></tr><tr><td style="font-weight:bold;vertical-align:top;">REMOTE_PORT</td><td style="vertical-align:top;">:</td><td><div>60914</div></td></tr><tr><td style="font-weight:bold;vertical-align:top;">REQUEST_METHOD</td><td style="vertical-align:top;">:</td><td><div>GET</div></td></tr><tr><td style="font-weight:bold;vertical-align:top;">SCRIPT_NAME</td><td style="vertical-align:top;">:</td><td><div></div></td></tr><tr><td style="font-weight:bold;vertical-align:top;">SERVER_NAME</td><td style="vertical-align:top;">:</td><td><div>Chaitanya</div></td></tr><tr><td style="font-weight:bold;vertical-align:top;">SERVER_PORT</td><td style="vertical-align:top;">:</td><td><div>8000</div></td></tr><tr><td style="font-weight:bold;vertical-align:top;">SERVER_PROTOCOL</td><td style="vertical-align:top;">:</td><td><div>HTTP/1.1</div></td></tr><tr><td style="font-weight:bold;vertical-align:top;">SERVER_SOFTWARE</td><td style="vertical-align:top;">:</td><td><div>Rocket 1.2.6</div></td></tr><tr><td style="font-weight:bold;vertical-align:top;">app_folders</td><td style="vertical-align:top;">:</td><td><div>set([&#x27;/home/chaitanya/Desktop/web2py/applications/welcome/&#x27;, &#x27;/home/chaitanya/Desktop/web2py/applications/admin/&#x27;, &#x27;/home/chaitanya/Desktop/web2py/applications/quiz/&#x27;])</div></td></tr><tr><td style="font-weight:bold;vertical-align:top;">applications_parent</td><td style="vertical-align:top;">:</td><td><div>/home/chaitanya/Desktop/web2py</div></td></tr><tr><td style="font-weight:bold;vertical-align:top;">cmd_args</td><td style="vertical-align:top;">:</td><td><div><table></table></div></td></tr><tr><td style="font-weight:bold;vertical-align:top;">cmd_options</td><td style="vertical-align:top;">:</td><td><div>&lt;Values at 0x2b3cdd0: {&#x27;verbose&#x27;: False, &#x27;ip&#x27;: &#x27;127.0.0.1&#x27;, &#x27;debuglevel&#x27;: 30, &#x27;with_scheduler&#x27;: False, &#x27;ips&#x27;: [&#x27;127.0.1.1&#x27;], &#x27;shutdown_timeout&#x27;: 5, &#x27;taskbar&#x27;: False, &#x27;with_coverage&#x27;: False, &#x27;port&#x27;: 8000, &#x27;maxthreads&#x27;: None, &#x27;softcron&#x27;: False, &#x27;server_name&#x27;: &#x27;Chaitanya&#x27;, &#x27;bpython&#x27;: False, &#x27;nogui&#x27;: False, &#x27;pid_filename&#x27;: &#x27;httpserver.pid&#x27;, &#x27;extcron&#x27;: False, &#x27;runcron&#x27;: False, &#x27;run_system_tests&#x27;: False, &#x27;test&#x27;: None, &#x27;folder&#x27;: &#x27;/home/chaitanya/Desktop/web2py&#x27;, &#x27;config&#x27;: &#x27;&#x27;, &#x27;minthreads&#x27;: None, &#x27;shell&#x27;: None, &#x27;run&#x27;: &#x27;&#x27;, &#x27;log_filename&#x27;: &#x27;httpserver.log&#x27;, &#x27;profiler_dir&#x27;: None, &#x27;args&#x27;: [&#x27;&#x27;], &#x27;socket_timeout&#x27;: 5, &#x27;ssl_ca_certificate&#x27;: None, &#x27;scheduler&#x27;: None, &#x27;interfaces&#x27;: None, &#x27;ssl_private_key&#x27;: &#x27;&#x27;, &#x27;scheduler_groups&#x27;: None, &#x27;password&#x27;: &#x27;&lt;ask&gt;&#x27;, &#x27;request_queue_size&#x27;: 5, &#x27;ssl_certificate&#x27;: &#x27;&#x27;, &#x27;cronjob&#x27;: False, &#x27;numthreads&#x27;: None, &#x27;quiet&#x27;: False, &#x27;import_models&#x27;: False, &#x27;timeout&#x27;: 10, &#x27;plain&#x27;: False, &#x27;nobanner&#x27;: False}&gt;</div></td></tr><tr><td style="font-weight:bold;vertical-align:top;">db_sessions</td><td style="vertical-align:top;">:</td><td><div>set([])</div></td></tr><tr><td style="font-weight:bold;vertical-align:top;">debugging</td><td style="vertical-align:top;">:</td><td><div>False</div></td></tr><tr><td style="font-weight:bold;vertical-align:top;">gluon_parent</td><td style="vertical-align:top;">:</td><td><div>/home/chaitanya/Desktop/web2py</div></td></tr><tr><td style="font-weight:bold;vertical-align:top;">http_accept</td><td style="vertical-align:top;">:</td><td><div>text/html,application/xhtml+xml,application/xml;q=0.9,*/*;q=0.8</div></td></tr><tr><td style="font-weight:bold;vertical-align:top;">http_accept_encoding</td><td style="vertical-align:top;">:</td><td><div>gzip, deflate</div></td></tr><tr><td style="font-weight:bold;vertical-align:top;">http_accept_language</td><td style="vertical-align:top;">:</td><td><div>en-US,en;q=0.5</div></td></tr><tr><td style="font-weight:bold;vertical-align:top;">http_cache_control</td><td style="vertical-align:top;">:</td><td><div>max-age=0</div></td></tr><tr><td style="font-weight:bold;vertical-align:top;">http_connection</td><td style="vertical-align:top;">:</td><td><div>keep-alive</div></td></tr><tr><td style="font-weight:bold;vertical-align:top;">http_cookie</td><td style="vertical-align:top;">:</td><td><div>session_id_welcome=127.0.0.1-fb107e96-388a-42d6-95c0-c3f387ddb8db; session_id_quiz=127.0.0.1-e548dc24-ea96-41c0-9cc4-4d05d231a713; session_id_admin=127.0.0.1-77f1b8ff-77c6-47bf-b4e2-8cf637c09c60</div></td></tr><tr><td style="font-weight:bold;vertical-align:top;">http_host</td><td style="vertical-align:top;">:</td><td><div>127.0.0.1:8000</div></td></tr><tr><td style="font-weight:bold;vertical-align:top;">http_referer</td><td style="vertical-align:top;">:</td><td><div>http://127.0.0.1:8000/quiz/default/start_quiz</div></td></tr><tr><td style="font-weight:bold;vertical-align:top;">http_user_agent</td><td style="vertical-align:top;">:</td><td><div>Mozilla/5.0 (X11; Ubuntu; Linux x86_64; rv:28.0) Gecko/20100101 Firefox/28.0</div></td></tr><tr><td style="font-weight:bold;vertical-align:top;">is_jython</td><td style="vertical-align:top;">:</td><td><div>False</div></td></tr><tr><td style="font-weight:bold;vertical-align:top;">is_pypy</td><td style="vertical-align:top;">:</td><td><div>False</div></td></tr><tr><td style="font-weight:bold;vertical-align:top;">is_source</td><td style="vertical-align:top;">:</td><td><div>True</div></td></tr><tr><td style="font-weight:bold;vertical-align:top;">local_hosts</td><td style="vertical-align:top;">:</td><td><div><table><tr><td><div>127.0.1.1</div></td></tr><tr><td><div>::1</div></td></tr><tr><td><div>Chaitanya</div></td></tr><tr><td><div>::ffff:127.0.0.1</div></td></tr><tr><td><div>127.0.0.1</div></td></tr></table></div></td></tr><tr><td style="font-weight:bold;vertical-align:top;">path_info</td><td style="vertical-align:top;">:</td><td><div>/quiz/default/start_quiz</div></td></tr><tr><td style="font-weight:bold;vertical-align:top;">query_string</td><td style="vertical-align:top;">:</td><td><div></div></td></tr><tr><td style="font-weight:bold;vertical-align:top;">remote_addr</td><td style="vertical-align:top;">:</td><td><div>127.0.0.1</div></td></tr><tr><td style="font-weight:bold;vertical-align:top;">remote_port</td><td style="vertical-align:top;">:</td><td><div>60914</div></td></tr><tr><td style="font-weight:bold;vertical-align:top;">request_method</td><td style="vertical-align:top;">:</td><td><div>GET</div></td></tr><tr><td style="font-weight:bold;vertical-align:top;">request_uri</td><td style="vertical-align:top;">:</td><td><div>/quiz/default/start_quiz</div></td></tr><tr><td style="font-weight:bold;vertical-align:top;">script_name</td><td style="vertical-align:top;">:</td><td><div></div></td></tr><tr><td style="font-weight:bold;vertical-align:top;">server_name</td><td style="vertical-align:top;">:</td><td><div>Chaitanya</div></td></tr><tr><td style="font-weight:bold;vertical-align:top;">server_port</td><td style="vertical-align:top;">:</td><td><div>8000</div></td></tr><tr><td style="font-weight:bold;vertical-align:top;">server_protocol</td><td style="vertical-align:top;">:</td><td><div>HTTP/1.1</div></td></tr><tr><td style="font-weight:bold;vertical-align:top;">server_software</td><td style="vertical-align:top;">:</td><td><div>Rocket 1.2.6</div></td></tr><tr><td style="font-weight:bold;vertical-align:top;">web2py_path</td><td style="vertical-align:top;">:</td><td><div>/home/chaitanya/Desktop/web2py</div></td></tr><tr><td style="font-weight:bold;vertical-align:top;">web2py_version</td><td style="vertical-align:top;">:</td><td><div>2.9.4-stable+timestamp.2014.03.05.04.44.09</div></td></tr><tr><td style="font-weight:bold;vertical-align:top;">wsgi.errors</td><td style="vertical-align:top;">:</td><td><div>&lt;open file &#x27;&lt;stderr&gt;&#x27;, mode &#x27;w&#x27; at 0x7fb03d6d2270&gt;</div></td></tr><tr><td style="font-weight:bold;vertical-align:top;">wsgi.file_wrapper</td><td style="vertical-align:top;">:</td><td><div>&lt;class wsgiref.util.FileWrapper at 0x2a9ae20&gt;</div></td></tr><tr><td style="font-weight:bold;vertical-align:top;">wsgi.input</td><td style="vertical-align:top;">:</td><td><div>&lt;socket._fileobject object at 0x7fb0205b31d0&gt;</div></td></tr><tr><td style="font-weight:bold;vertical-align:top;">wsgi.multiprocess</td><td style="vertical-align:top;">:</td><td><div>False</div></td></tr><tr><td style="font-weight:bold;vertical-align:top;">wsgi.multithread</td><td style="vertical-align:top;">:</td><td><div>True</div></td></tr><tr><td style="font-weight:bold;vertical-align:top;">wsgi.run_once</td><td style="vertical-align:top;">:</td><td><div>False</div></td></tr><tr><td style="font-weight:bold;vertical-align:top;">wsgi.url_scheme</td><td style="vertical-align:top;">:</td><td><div>http</div></td></tr><tr><td style="font-weight:bold;vertical-align:top;">wsgi.version</td><td style="vertical-align:top;">:</td><td><div><table><tr><td><div>1</div></td></tr><tr><td><div>0</div></td></tr></table></div></td></tr><tr><td style="font-weight:bold;vertical-align:top;">wsgi_errors</td><td style="vertical-align:top;">:</td><td><div>&lt;open file &#x27;&lt;stderr&gt;&#x27;, mode &#x27;w&#x27; at 0x7fb03d6d2270&gt;</div></td></tr><tr><td style="font-weight:bold;vertical-align:top;">wsgi_file_wrapper</td><td style="vertical-align:top;">:</td><td><div>&lt;class wsgiref.util.FileWrapper at 0x2a9ae20&gt;</div></td></tr><tr><td style="font-weight:bold;vertical-align:top;">wsgi_input</td><td style="vertical-align:top;">:</td><td><div>&lt;socket._fileobject object at 0x7fb0205b31d0&gt;</div></td></tr><tr><td style="font-weight:bold;vertical-align:top;">wsgi_multiprocess</td><td style="vertical-align:top;">:</td><td><div>False</div></td></tr><tr><td style="font-weight:bold;vertical-align:top;">wsgi_multithread</td><td style="vertical-align:top;">:</td><td><div>True</div></td></tr><tr><td style="font-weight:bold;vertical-align:top;">wsgi_run_once</td><td style="vertical-align:top;">:</td><td><div>False</div></td></tr><tr><td style="font-weight:bold;vertical-align:top;">wsgi_url_scheme</td><td style="vertical-align:top;">:</td><td><div>http</div></td></tr><tr><td style="font-weight:bold;vertical-align:top;">wsgi_version</td><td style="vertical-align:top;">:</td><td><div><table><tr><td><div>1</div></td></tr><tr><td><div>0</div></td></tr></table></div></td></tr></table></div></td></tr><tr><td style="font-weight:bold;vertical-align:top;">extension</td><td style="vertical-align:top;">:</td><td><div>html</div></td></tr><tr><td style="font-weight:bold;vertical-align:top;">folder</td><td style="vertical-align:top;">:</td><td><div>/home/chaitanya/Desktop/web2py/applications/quiz/</div></td></tr><tr><td style="font-weight:bold;vertical-align:top;">function</td><td style="vertical-align:top;">:</td><td><div>start_quiz</div></td></tr><tr><td style="font-weight:bold;vertical-align:top;">global_settings</td><td style="vertical-align:top;">:</td><td><div><table><tr><td style="font-weight:bold;vertical-align:top;">app_folders</td><td style="vertical-align:top;">:</td><td><div>set([&#x27;/home/chaitanya/Desktop/web2py/applications/welcome/&#x27;, &#x27;/home/chaitanya/Desktop/web2py/applications/admin/&#x27;, &#x27;/home/chaitanya/Desktop/web2py/applications/quiz/&#x27;])</div></td></tr><tr><td style="font-weight:bold;vertical-align:top;">applications_parent</td><td style="vertical-align:top;">:</td><td><div>/home/chaitanya/Desktop/web2py</div></td></tr><tr><td style="font-weight:bold;vertical-align:top;">cmd_args</td><td style="vertical-align:top;">:</td><td><div><table></table></div></td></tr><tr><td style="font-weight:bold;vertical-align:top;">cmd_options</td><td style="vertical-align:top;">:</td><td><div>&lt;Values at 0x2b3cdd0: {&#x27;verbose&#x27;: False, &#x27;ip&#x27;: &#x27;127.0.0.1&#x27;, &#x27;debuglevel&#x27;: 30, &#x27;with_scheduler&#x27;: False, &#x27;ips&#x27;: [&#x27;127.0.1.1&#x27;], &#x27;shutdown_timeout&#x27;: 5, &#x27;taskbar&#x27;: False, &#x27;with_coverage&#x27;: False, &#x27;port&#x27;: 8000, &#x27;maxthreads&#x27;: None, &#x27;softcron&#x27;: False, &#x27;server_name&#x27;: &#x27;Chaitanya&#x27;, &#x27;bpython&#x27;: False, &#x27;nogui&#x27;: False, &#x27;pid_filename&#x27;: &#x27;httpserver.pid&#x27;, &#x27;extcron&#x27;: False, &#x27;runcron&#x27;: False, &#x27;run_system_tests&#x27;: False, &#x27;test&#x27;: None, &#x27;folder&#x27;: &#x27;/home/chaitanya/Desktop/web2py&#x27;, &#x27;config&#x27;: &#x27;&#x27;, &#x27;minthreads&#x27;: None, &#x27;shell&#x27;: None, &#x27;run&#x27;: &#x27;&#x27;, &#x27;log_filename&#x27;: &#x27;httpserver.log&#x27;, &#x27;profiler_dir&#x27;: None, &#x27;args&#x27;: [&#x27;&#x27;], &#x27;socket_timeout&#x27;: 5, &#x27;ssl_ca_certificate&#x27;: None, &#x27;scheduler&#x27;: None, &#x27;interfaces&#x27;: None, &#x27;ssl_private_key&#x27;: &#x27;&#x27;, &#x27;scheduler_groups&#x27;: None, &#x27;password&#x27;: &#x27;&lt;ask&gt;&#x27;, &#x27;request_queue_size&#x27;: 5, &#x27;ssl_certificate&#x27;: &#x27;&#x27;, &#x27;cronjob&#x27;: False, &#x27;numthreads&#x27;: None, &#x27;quiet&#x27;: False, &#x27;import_models&#x27;: False, &#x27;timeout&#x27;: 10, &#x27;plain&#x27;: False, &#x27;nobanner&#x27;: False}&gt;</div></td></tr><tr><td style="font-weight:bold;vertical-align:top;">db_sessions</td><td style="vertical-align:top;">:</td><td><div>set([])</div></td></tr><tr><td style="font-weight:bold;vertical-align:top;">debugging</td><td style="vertical-align:top;">:</td><td><div>False</div></td></tr><tr><td style="font-weight:bold;vertical-align:top;">gluon_parent</td><td style="vertical-align:top;">:</td><td><div>/home/chaitanya/Desktop/web2py</div></td></tr><tr><td style="font-weight:bold;vertical-align:top;">is_jython</td><td style="vertical-align:top;">:</td><td><div>False</div></td></tr><tr><td style="font-weight:bold;vertical-align:top;">is_pypy</td><td style="vertical-align:top;">:</td><td><div>False</div></td></tr><tr><td style="font-weight:bold;vertical-align:top;">is_source</td><td style="vertical-align:top;">:</td><td><div>True</div></td></tr><tr><td style="font-weight:bold;vertical-align:top;">local_hosts</td><td style="vertical-align:top;">:</td><td><div><table><tr><td><div>127.0.1.1</div></td></tr><tr><td><div>::1</div></td></tr><tr><td><div>Chaitanya</div></td></tr><tr><td><div>::ffff:127.0.0.1</div></td></tr><tr><td><div>127.0.0.1</div></td></tr></table></div></td></tr><tr><td style="font-weight:bold;vertical-align:top;">web2py_version</td><td style="vertical-align:top;">:</td><td><div>2.9.4-stable+timestamp.2014.03.05.04.44.09</div></td></tr></table></div></td></tr><tr><td style="font-weight:bold;vertical-align:top;">is_https</td><td style="vertical-align:top;">:</td><td><div>False</div></td></tr><tr><td style="font-weight:bold;vertical-align:top;">is_local</td><td style="vertical-align:top;">:</td><td><div>True</div></td></tr><tr><td style="font-weight:bold;vertical-align:top;">is_restful</td><td style="vertical-align:top;">:</td><td><div>False</div></td></tr><tr><td style="font-weight:bold;vertical-align:top;">now</td><td style="vertical-align:top;">:</td><td><div>datetime.datetime(2014, 3, 28, 15, 55, 6, 947545)</div></td></tr><tr><td style="font-weight:bold;vertical-align:top;">raw_args</td><td style="vertical-align:top;">:</td><td><div></div></td></tr><tr><td style="font-weight:bold;vertical-align:top;">raw_extension</td><td style="vertical-align:top;">:</td><td><div>None</div></td></tr><tr><td style="font-weight:bold;vertical-align:top;">url</td><td style="vertical-align:top;">:</td><td><div>/quiz/default/start_quiz</div></td></tr><tr><td style="font-weight:bold;vertical-align:top;">utcnow</td><td style="vertical-align:top;">:</td><td><div>datetime.datetime(2014, 3, 28, 10, 25, 6, 947586)</div></td></tr><tr><td style="font-weight:bold;vertical-align:top;">uuid</td><td style="vertical-align:top;">:</td><td><div>quiz/127.0.0.1.2014-03-28.15-55-06.b05d560f-9229-4e8e-ae0e-05e9eff92743</div></td></tr><tr><td style="font-weight:bold;vertical-align:top;">wsgi</td><td style="vertical-align:top;">:</td><td><div>&lt;gluon.main.LazyWSGI object at 0x7fb0107fcf50&gt;</div></td></tr></table></div>'
tRp58
sS'frames'
p59
(lp60
(dp61
S'file'
p62
S'/home/chaitanya/Desktop/web2py/gluon/restricted.py'
p63
sS'dump'
p64
(dp65
S'environment'
p66
S"{'A': <class 'gluon.html.A'>, 'ANY_OF': <class 'gluon.validators.ANY_OF'>, 'Auth': <class 'gluon.tools.Auth'>, 'B': <class 'gluon.html.B'>, 'BEAUTIFY': <class 'gluon.html.BEAUTIFY'>, 'BODY': <class 'gluon.html.BODY'>, 'BR': <class 'gluon.html.BR'>, 'BUTTON': <class 'gluon.html.BUTTON'>, 'CAT': <class 'gluon.html.CAT'>, 'CENTER': <class 'gluon.html.CENTER'>, ...}"
p67
sS'ccode'
p68
S'<code object <module> at 0x7fb00c4d4b30, file "/...ions/quiz/views/default/start_quiz.html", line 1>'
p69
ssS'lnum'
p70
I217
sS'lines'
p71
(dp72
I212
S'    try:'
p73
sI213
S'        if isinstance(code, types.CodeType):'
p74
sI214
S'            ccode = code'
p75
sI215
S'        else:'
p76
sI216
S'            ccode = compile2(code, layer)'
p77
sI217
S'        exec ccode in environment'
p78
sI218
S'    except HTTP:'
p79
sI219
S'        raise'
p80
sI220
S'    except RestrictedError:'
p81
sI221
S'        # do not encapsulate (obfuscate) the original RestrictedError'
p82
ssS'call'
p83
S'(code="dic=[]\\nfor i in range(count):\\n    dic.append(rec...color:blue;}\\\\n</style>\\\\n</html>\\\\n\', escape=False)", environment={\'A\': <class \'gluon.html.A\'>, \'ANY_OF\': <class \'gluon.validators.ANY_OF\'>, \'Auth\': <class \'gluon.tools.Auth\'>, \'B\': <class \'gluon.html.B\'>, \'BEAUTIFY\': <class \'gluon.html.BEAUTIFY\'>, \'BODY\': <class \'gluon.html.BODY\'>, \'BR\': <class \'gluon.html.BR\'>, \'BUTTON\': <class \'gluon.html.BUTTON\'>, \'CAT\': <class \'gluon.html.CAT\'>, \'CENTER\': <class \'gluon.html.CENTER\'>, ...}, layer=\'/home/chaitanya/Desktop/web2py/applications/quiz/views/default/start_quiz.html\')'
p84
sS'func'
p85
S'restricted'
p86
sa(dp87
g62
S'/home/chaitanya/Desktop/web2py/applications/quiz/views/default/start_quiz.html'
p88
sg64
(dp89
sg70
I20
sg71
(dp90
I11
S"    response.write('\\n\\t\\t\\t\\t\\t', escape=False)"
p91
sI12
S'    j=count-i-1'
p92
sI13
S"    response.write('\\n\\t\\t\\t\\t\\t', escape=False)"
p93
sI14
S'    if rec[j].name==name:'
p94
sI15
S"        response.write('\\n\\t\\t\\t\\t\\t    ', escape=False)"
p95
sI16
S'        pos=i+1'
p96
sI17
S"        response.write('\\n\\t\\t\\t\\t\\t', escape=False)"
p97
sI18
S'        pass'
p98
sI19
S"    response.write('\\n\\t\\t\\t\\t\\t', escape=False)"
p99
sI20
S'    if(rec[j].name.startswith(session.arguments)):'
p100
sI21
S'        response.write(\'\\n\\t\\t\\t\\t\\t\\t<div style="float:left;width:10%;">\', escape=False)'
p101
sI22
S'        response.write(i+1)'
p102
sI23
S'        response.write(\'.</div>\\n\\t\\t\\t\\t\\t\\t<div style="float:left;width:25%;padding-left:40px;">\', escape=False)'
p103
sI24
S'        response.write(rec[j].name)'
p104
sI25
S'        response.write(\'</div>\\n\\t\\t\\t\\t\\t\\t<div style="float:left;width:25%;padding-left:55px;">\', escape=False)'
p105
sI26
S'        response.write(rec[j].score)'
p106
sI27
S"        response.write('</div><br>\\n\\t\\t\\t\\t\\t', escape=False)"
p107
sI28
S'        pass'
p108
sI29
S"    response.write('\\n\\t\\t\\t\\t ', escape=False)"
p109
sI30
S'    pass'
p110
ssg83
S'()'
p111
sg85
S'<module>'
p112
sasS'pyver'
p113
S'Python 2.7.3: /usr/bin/python (prefix: /usr)'
p114
sS'session'
p115
g57
(S'sv\n\x00\x00<div><table><tr><td style="font-weight:bold;vertical-align:top;">ans</td><td style="vertical-align:top;">:</td><td><div>optiond</div></td></tr><tr><td style="font-weight:bold;vertical-align:top;">auth</td><td style="vertical-align:top;">:</td><td><div><table><tr><td style="font-weight:bold;vertical-align:top;">expiration</td><td style="vertical-align:top;">:</td><td><div>3600</div></td></tr><tr><td style="font-weight:bold;vertical-align:top;">hmac_key</td><td style="vertical-align:top;">:</td><td><div>d12083cc-7e71-4cec-b0d8-674ec0320612</div></td></tr><tr><td style="font-weight:bold;vertical-align:top;">last_visit</td><td style="vertical-align:top;">:</td><td><div>datetime.datetime(2014, 3, 28, 15, 55, 6, 947545)</div></td></tr><tr><td style="font-weight:bold;vertical-align:top;">remember</td><td style="vertical-align:top;">:</td><td><div>False</div></td></tr><tr><td style="font-weight:bold;vertical-align:top;">user</td><td style="vertical-align:top;">:</td><td><div><table><tr><td style="font-weight:bold;vertical-align:top;">Image</td><td style="vertical-align:top;">:</td><td><div></div></td></tr><tr><td style="font-weight:bold;vertical-align:top;">email</td><td style="vertical-align:top;">:</td><td><div>achaitanyasai@gmail.com</div></td></tr><tr><td style="font-weight:bold;vertical-align:top;">first_name</td><td style="vertical-align:top;">:</td><td><div>achaitanya</div></td></tr><tr><td style="font-weight:bold;vertical-align:top;">id</td><td style="vertical-align:top;">:</td><td><div>1L</div></td></tr><tr><td style="font-weight:bold;vertical-align:top;">last_name</td><td style="vertical-align:top;">:</td><td><div>sai</div></td></tr><tr><td style="font-weight:bold;vertical-align:top;">registration_id</td><td style="vertical-align:top;">:</td><td><div></div></td></tr><tr><td style="font-weight:bold;vertical-align:top;">registration_key</td><td style="vertical-align:top;">:</td><td><div></div></td></tr><tr><td style="font-weight:bold;vertical-align:top;">reset_password_key</td><td style="vertical-align:top;">:</td><td><div></div></td></tr></table></div></td></tr><tr><td style="font-weight:bold;vertical-align:top;">user_groups</td><td style="vertical-align:top;">:</td><td><div><table><tr><td style="font-weight:bold;vertical-align:top;">21</td><td style="vertical-align:top;">:</td><td><div>user_1</div></td></tr></table></div></td></tr></table></div></td></tr><tr><td style="font-weight:bold;vertical-align:top;">flash</td><td style="vertical-align:top;">:</td><td><div>None</div></td></tr><tr><td style="font-weight:bold;vertical-align:top;">name</td><td style="vertical-align:top;">:</td><td><div>achaitanya</div></td></tr></table></div>'
tRp116
sS'etype'
p117
S"<type 'exceptions.TypeError'>"
p118
sS'date'
p119
S'Fri Mar 28 15:55:07 2014'
p120
sS'response'
p121
g57
(S's\xed1\x00\x00<div><table><tr><td style="font-weight:bold;vertical-align:top;">body</td><td style="vertical-align:top;">:</td><td><div>&lt;cStringIO.StringO object at 0x7fb00c4bb298&gt;</div></td></tr><tr><td style="font-weight:bold;vertical-align:top;">cookies</td><td style="vertical-align:top;">:</td><td><div><table><tr><td style="font-weight:bold;vertical-align:top;">session_id_quiz</td><td style="vertical-align:top;">:</td><td><div>127.0.0.1-e548dc24-ea96-41c0-9cc4-4d05d231a713<table><tr><td style="font-weight:bold;vertical-align:top;">comment</td><td style="vertical-align:top;">:</td><td><div></div></td></tr><tr><td style="font-weight:bold;vertical-align:top;">domain</td><td style="vertical-align:top;">:</td><td><div></div></td></tr><tr><td style="font-weight:bold;vertical-align:top;">expires</td><td style="vertical-align:top;">:</td><td><div></div></td></tr><tr><td style="font-weight:bold;vertical-align:top;">httponly</td><td style="vertical-align:top;">:</td><td><div></div></td></tr><tr><td style="font-weight:bold;vertical-align:top;">max-age</td><td style="vertical-align:top;">:</td><td><div></div></td></tr><tr><td style="font-weight:bold;vertical-align:top;">path</td><td style="vertical-align:top;">:</td><td><div>/</div></td></tr><tr><td style="font-weight:bold;vertical-align:top;">secure</td><td style="vertical-align:top;">:</td><td><div></div></td></tr><tr><td style="font-weight:bold;vertical-align:top;">version</td><td style="vertical-align:top;">:</td><td><div></div></td></tr></table></div></td></tr></table></div></td></tr><tr><td style="font-weight:bold;vertical-align:top;">delimiters</td><td style="vertical-align:top;">:</td><td><div><table><tr><td><div>{{</div></td></tr><tr><td><div>}}</div></td></tr></table></div></td></tr><tr><td style="font-weight:bold;vertical-align:top;">files</td><td style="vertical-align:top;">:</td><td><div><table></table></div></td></tr><tr><td style="font-weight:bold;vertical-align:top;">flash</td><td style="vertical-align:top;">:</td><td><div></div></td></tr><tr><td style="font-weight:bold;vertical-align:top;">generic_patterns</td><td style="vertical-align:top;">:</td><td><div><table><tr><td><div>*</div></td></tr></table></div></td></tr><tr><td style="font-weight:bold;vertical-align:top;">google_analytics_id</td><td style="vertical-align:top;">:</td><td><div>None</div></td></tr><tr><td style="font-weight:bold;vertical-align:top;">headers</td><td style="vertical-align:top;">:</td><td><div><table><tr><td style="font-weight:bold;vertical-align:top;">X-Powered-By</td><td style="vertical-align:top;">:</td><td><div>web2py</div></td></tr></table></div></td></tr><tr><td style="font-weight:bold;vertical-align:top;">logo</td><td style="vertical-align:top;">:</td><td><div><a class="brand" href="http://www.web2py.com/"><b>web<span>2</span>py</b>&trade;&nbsp;</a></div></td></tr><tr><td style="font-weight:bold;vertical-align:top;">menu</td><td style="vertical-align:top;">:</td><td><div><table><tr><td><div><table><tr><td><div>Home</div></td></tr><tr><td><div>False</div></td></tr><tr><td><div>/quiz/default/index</div></td></tr><tr><td><div><table></table></div></td></tr></table></div></td></tr><tr><td><div><table><tr><td><div><span class="highlighted">web2py</span></div></td></tr><tr><td><div>False</div></td></tr><tr><td><div>http://web2py.com</div></td></tr><tr><td><div><table><tr><td><div><table><tr><td><div>My Sites</div></td></tr><tr><td><div>False</div></td></tr><tr><td><div>/admin/default/site</div></td></tr></table></div></td></tr><tr><td><div><table><tr><td><div>This App</div></td></tr><tr><td><div>False</div></td></tr><tr><td><div>/admin/default/design/quiz</div></td></tr><tr><td><div>[(&lt;lazyT &#x27;Controller&#x27;&gt;, False, &#x27;/admin/default/edit/quiz/controllers/default.py&#x27;), (&lt;lazyT &#x27;View&#x27;&gt;, False, &#x27;/admin/default/edit/quiz/views/default/start_quiz.html&#x27;), (&lt;lazyT &#x27;Layout&#x27;&gt;, False, &#x27;/admin/default/edit/quiz/views/layout.html&#x27;), (&lt;lazyT &#x27;Stylesheet&#x27;&gt;, False, &#x27;/admin/default/edit/quiz/static/css/web2py.css&#x27;), (&lt;lazyT &#x27;DB Model&#x27;&gt;, False, &#x27;/admin/default/edit/quiz/models/db.py&#x27;), (&lt;lazyT &#x27;Menu Model&#x27;&gt;, False, &#x27;/admin/default/edit/quiz/models/menu.py&#x27;), (&lt;lazyT &#x27;Database&#x27;&gt;, False, &#x27;/quiz/appadmin/index&#x27;), (&lt;lazyT &#x27;Errors&#x27;&gt;, False, &#x27;/admin/default/errors/quiz&#x27;), (&lt;lazyT &#x27;About&#x27;&gt;, False, &#x27;/admin/default/about/quiz&#x27;)]</div></td></tr></table></div></td></tr><tr><td><div><table><tr><td><div>web2py.com</div></td></tr><tr><td><div>False</div></td></tr><tr><td><div>http://www.web2py.com</div></td></tr><tr><td><div>[(&lt;lazyT &#x27;Download&#x27;&gt;, False, &#x27;http://www.web2py.com/examples/default/download&#x27;), (&lt;lazyT &#x27;Support&#x27;&gt;, False, &#x27;http://www.web2py.com/examples/default/support&#x27;), (&lt;lazyT &#x27;Demo&#x27;&gt;, False, &#x27;http://web2py.com/demo_admin&#x27;), (&lt;lazyT &#x27;Quick Examples&#x27;&gt;, False, &#x27;http://web2py.com/examples/default/examples&#x27;), (&lt;lazyT &#x27;FAQ&#x27;&gt;, False, &#x27;http://web2py.com/AlterEgo&#x27;), (&lt;lazyT &#x27;Videos&#x27;&gt;, False, &#x27;http://www.web2py.com/examples/default/videos/&#x27;), (&lt;lazyT &#x27;Free Applications&#x27;&gt;, False, &#x27;http://web2py.com/appliances&#x27;), (&lt;lazyT &#x27;Plugins&#x27;&gt;, False, &#x27;http://web2py.com/plugins&#x27;), (&lt;lazyT &#x27;Layouts&#x27;&gt;, False, &#x27;http://web2py.com/layouts&#x27;), (&lt;lazyT &#x27;Recipes&#x27;&gt;, False, &#x27;http://web2pyslices.com/&#x27;), (&lt;lazyT &#x27;Semantic&#x27;&gt;, False, &#x27;http://web2py.com/semantic&#x27;)]</div></td></tr></table></div></td></tr><tr><td><div><table><tr><td><div>Documentation</div></td></tr><tr><td><div>False</div></td></tr><tr><td><div>http://www.web2py.com/book</div></td></tr><tr><td><div>[(&lt;lazyT &#x27;Preface&#x27;&gt;, False, &#x27;http://www.web2py.com/book/default/chapter/00&#x27;), (&lt;lazyT &#x27;Introduction&#x27;&gt;, False, &#x27;http://www.web2py.com/book/default/chapter/01&#x27;), (&lt;lazyT &#x27;Python&#x27;&gt;, False, &#x27;http://www.web2py.com/book/default/chapter/02&#x27;), (&lt;lazyT &#x27;Overview&#x27;&gt;, False, &#x27;http://www.web2py.com/book/default/chapter/03&#x27;), (&lt;lazyT &#x27;The Core&#x27;&gt;, False, &#x27;http://www.web2py.com/book/default/chapter/04&#x27;), (&lt;lazyT &#x27;The Views&#x27;&gt;, False, &#x27;http://www.web2py.com/book/default/chapter/05&#x27;), (&lt;lazyT &#x27;Database&#x27;&gt;, False, &#x27;http://www.web2py.com/book/default/chapter/06&#x27;), (&lt;lazyT &#x27;Forms and Validators&#x27;&gt;, False, &#x27;http://www.web2py.com/book/default/chapter/07&#x27;), (&lt;lazyT &#x27;Email and SMS&#x27;&gt;, False, &#x27;http://www.web2py.com/book/default/chapter/08&#x27;), (&lt;lazyT &#x27;Access Control&#x27;&gt;, False, &#x27;http://www.web2py.com/book/default/chapter/09&#x27;), (&lt;lazyT &#x27;Services&#x27;&gt;, False, &#x27;http://www.web2py.com/book/default/chapter/10&#x27;), (&lt;lazyT &#x27;Ajax Recipes&#x27;&gt;, False, &#x27;http://www.web2py.com/book/default/chapter/11&#x27;), (&lt;lazyT &#x27;Components and Plugins&#x27;&gt;, False, &#x27;http://www.web2py.com/book/default/chapter/12&#x27;), (&lt;lazyT &#x27;Deployment Recipes&#x27;&gt;, False, &#x27;http://www.web2py.com/book/default/chapter/13&#x27;), (&lt;lazyT &#x27;Other Recipes&#x27;&gt;, False, &#x27;http://www.web2py.com/book/default/chapter/14&#x27;), (&lt;lazyT &#x27;Buy this book&#x27;&gt;, False, &#x27;http://stores.lulu.com/web2py&#x27;)]</div></td></tr></table></div></td></tr><tr><td><div><table><tr><td><div>Community</div></td></tr><tr><td><div>False</div></td></tr><tr><td><div>None</div></td></tr><tr><td><div>[(&lt;lazyT &#x27;Groups&#x27;&gt;, False, &#x27;http://www.web2py.com/examples/default/usergroups&#x27;), (&lt;lazyT &#x27;Twitter&#x27;&gt;, False, &#x27;http://twitter.com/web2py&#x27;), (&lt;lazyT &#x27;Live Chat&#x27;&gt;, False, &#x27;http://webchat.freenode.net/?channels=web2py&#x27;)]</div></td></tr></table></div></td></tr><tr><td><div><table><tr><td><div>Plugins</div></td></tr><tr><td><div>False</div></td></tr><tr><td><div>None</div></td></tr><tr><td><div>[(&#x27;plugin_wiki&#x27;, False, &#x27;http://web2py.com/examples/default/download&#x27;), (&lt;lazyT &#x27;Other Plugins&#x27;&gt;, False, &#x27;http://web2py.com/plugins&#x27;), (&lt;lazyT &#x27;Layout Plugins&#x27;&gt;, False, &#x27;http://web2py.com/layouts&#x27;)]</div></td></tr></table></div></td></tr></table></div></td></tr></table></div></td></tr></table></div></td></tr><tr><td style="font-weight:bold;vertical-align:top;">meta</td><td style="vertical-align:top;">:</td><td><div><table><tr><td style="font-weight:bold;vertical-align:top;">author</td><td style="vertical-align:top;">:</td><td><div>Your Name &lt;you@example.com&gt;</div></td></tr><tr><td style="font-weight:bold;vertical-align:top;">description</td><td style="vertical-align:top;">:</td><td><div>a cool new app</div></td></tr><tr><td style="font-weight:bold;vertical-align:top;">generator</td><td style="vertical-align:top;">:</td><td><div>Web2py Web Framework</div></td></tr><tr><td style="font-weight:bold;vertical-align:top;">keywords</td><td style="vertical-align:top;">:</td><td><div>web2py, python, framework</div></td></tr></table></div></td></tr><tr><td style="font-weight:bold;vertical-align:top;">models_to_run</td><td style="vertical-align:top;">:</td><td><div><table><tr><td><div>^\\w+\\.py$</div></td></tr><tr><td><div>^default/\\w+\\.py$</div></td></tr><tr><td><div>^default/start_quiz/\\w+\\.py$</div></td></tr></table></div></td></tr><tr><td style="font-weight:bold;vertical-align:top;">postprocessing</td><td style="vertical-align:top;">:</td><td><div><table></table></div></td></tr><tr><td style="font-weight:bold;vertical-align:top;">session_client</td><td style="vertical-align:top;">:</td><td><div>127.0.0.1</div></td></tr><tr><td style="font-weight:bold;vertical-align:top;">session_cookie_compression_level</td><td style="vertical-align:top;">:</td><td><div>None</div></td></tr><tr><td style="font-weight:bold;vertical-align:top;">session_cookie_expires</td><td style="vertical-align:top;">:</td><td><div>None</div></td></tr><tr><td style="font-weight:bold;vertical-align:top;">session_cookie_key</td><td style="vertical-align:top;">:</td><td><div>None</div></td></tr><tr><td style="font-weight:bold;vertical-align:top;">session_data_name</td><td style="vertical-align:top;">:</td><td><div>session_data_quiz</div></td></tr><tr><td style="font-weight:bold;vertical-align:top;">session_file</td><td style="vertical-align:top;">:</td><td><div>&lt;open file &#x27;/home/chaitanya/Desktop/web2py/applications/quiz/sessions/127.0.0.1-e548dc24-ea96-41c0-9cc4-4d05d231a713&#x27;, mode &#x27;rb+&#x27; at 0x7fb00c4c9780&gt;</div></td></tr><tr><td style="font-weight:bold;vertical-align:top;">session_filename</td><td style="vertical-align:top;">:</td><td><div>/home/chaitanya/Desktop/web2py/applications/quiz/sessions/127.0.0.1-e548dc24-ea96-41c0-9cc4-4d05d231a713</div></td></tr><tr><td style="font-weight:bold;vertical-align:top;">session_hash</td><td style="vertical-align:top;">:</td><td><div>c1c1c22dc54d1538e2df68696afc7c2f</div></td></tr><tr><td style="font-weight:bold;vertical-align:top;">session_id</td><td style="vertical-align:top;">:</td><td><div>127.0.0.1-e548dc24-ea96-41c0-9cc4-4d05d231a713</div></td></tr><tr><td style="font-weight:bold;vertical-align:top;">session_id_name</td><td style="vertical-align:top;">:</td><td><div>session_id_quiz</div></td></tr><tr><td style="font-weight:bold;vertical-align:top;">session_locked</td><td style="vertical-align:top;">:</td><td><div>True</div></td></tr><tr><td style="font-weight:bold;vertical-align:top;">session_masterapp</td><td style="vertical-align:top;">:</td><td><div>quiz</div></td></tr><tr><td style="font-weight:bold;vertical-align:top;">session_new</td><td style="vertical-align:top;">:</td><td><div>False</div></td></tr><tr><td style="font-weight:bold;vertical-align:top;">session_storage_type</td><td style="vertical-align:top;">:</td><td><div>file</div></td></tr><tr><td style="font-weight:bold;vertical-align:top;">status</td><td style="vertical-align:top;">:</td><td><div>200</div></td></tr><tr><td style="font-weight:bold;vertical-align:top;">subtitle</td><td style="vertical-align:top;">:</td><td><div></div></td></tr><tr><td style="font-weight:bold;vertical-align:top;">title</td><td style="vertical-align:top;">:</td><td><div>Quiz</div></td></tr><tr><td style="font-weight:bold;vertical-align:top;">view</td><td style="vertical-align:top;">:</td><td><div>default/start_quiz.html</div></td></tr></table></div>'
tRp122
sS'locals'
p123
(dp124
S'Service'
p125
S"<class 'gluon.tools.Service'>"
p126
sS'OBJECT'
p127
S"<class 'gluon.html.OBJECT'>"
p128
sS'SQLDB'
p129
S"<class 'gluon.dal.DAL'>"
p130
sg115
S"<Storage {'flash': None, 'name': 'achaitanya', '...gin]': ['f9403abe-fbab-4ecf-a054-204fa67189e9']}>"
p131
sS'LINK'
p132
S"<class 'gluon.html.LINK'>"
p133
sS'BR'
p134
S"<class 'gluon.html.BR'>"
p135
sS'local_import'
p136
S'<function <lambda>>'
p137
sS'OPTGROUP'
p138
S"<class 'gluon.html.OPTGROUP'>"
p139
sS'__package__'
p140
S'None'
p141
sS'PRE'
p142
S"<class 'gluon.html.PRE'>"
p143
sS'IS_INT_IN_RANGE'
p144
S"<class 'gluon.validators.IS_INT_IN_RANGE'>"
p145
sS'IS_LOWER'
p146
S"<class 'gluon.validators.IS_LOWER'>"
p147
sS'IS_STRONG'
p148
S"<class 'gluon.validators.IS_STRONG'>"
p149
sS'cache'
p150
S'<gluon.cache.Cache object>'
p151
sS'IS_IN_DB'
p152
S"<class 'gluon.validators.IS_IN_DB'>"
p153
sS'TAG'
p154
S'<gluon.html.__TAG__ object>'
p155
sS'SQLField'
p156
S"<class 'gluon.dal.Field'>"
p157
sS'mail'
p158
S'<gluon.tools.Mail object>'
p159
sS'BODY'
p160
S"<class 'gluon.html.BODY'>"
p161
sS'IS_DATE_IN_RANGE'
p162
S"<class 'gluon.validators.IS_DATE_IN_RANGE'>"
p163
sS'IFRAME'
p164
S"<class 'gluon.html.IFRAME'>"
p165
sS'URL'
p166
S'<function URL>'
p167
sS'__file__'
p168
S"'/home/chaitanya/Desktop/web2py/applications/quiz/views/default/start_quiz.html'"
p169
sS'db'
p170
S'<DAL uri="sqlite://storage.sqlite">'
p171
sS'auth'
p172
S'<gluon.tools.Auth object>'
p173
sS'P'
S"<class 'gluon.html.P'>"
p174
sS'TFOOT'
p175
S"<class 'gluon.html.TFOOT'>"
p176
sS'rec'
p177
S'<Rows (2)>'
p178
sS'XHTML'
p179
S"<class 'gluon.html.XHTML'>"
p180
sS'fifty'
p181
S'0L'
p182
sS'ON'
p183
S'True'
p184
sS'OL'
p185
S"<class 'gluon.html.OL'>"
p186
sS'name'
p187
S"'achaitanya'"
p188
sS'TEXTAREA'
p189
S"<class 'gluon.html.TEXTAREA'>"
p190
sS'MENU'
p191
S"<class 'gluon.html.MENU'>"
p192
sS'dic'
p193
S"[<Row {'fiftyfifty': 0L, 'name': 'achaitanya', 'score': -140L, 'done': 1L, 'poll': 0L, 'id': 1L}>, <Row {'fiftyfifty': 0L, 'name': 'acs', 'score': 0L, 'done': 0L, 'poll': 0L, 'id': 2L}>]"
p194
sS'IS_IMAGE'
p195
S"<class 'gluon.validators.IS_IMAGE'>"
p196
sS'EM'
p197
S"<class 'gluon.html.EM'>"
p198
sS'CODE'
p199
S"<class 'gluon.html.CODE'>"
p200
sS'HTTP'
p201
S"<class 'gluon.http.HTTP'>"
p202
sS'HR'
p203
S"<class 'gluon.html.HR'>"
p204
sS'IS_DATETIME'
p205
S"<class 'gluon.validators.IS_DATETIME'>"
p206
sS'STYLE'
p207
S"<class 'gluon.html.STYLE'>"
p208
sS'LABEL'
p209
S"<class 'gluon.html.LABEL'>"
p210
sS'CLEANUP'
p211
S"<class 'gluon.validators.CLEANUP'>"
p212
sS'plugins'
p213
S'<gluon.tools.PluginManager object>'
p214
sS'SELECT'
p215
S"<class 'gluon.html.SELECT'>"
p216
sS'use_janrain'
p217
S'<function use_janrain>'
p218
sS'STRONG'
p219
S"<class 'gluon.html.STRONG'>"
p220
sS'CENTER'
p221
S"<class 'gluon.html.CENTER'>"
p222
sS'prettydate'
p223
S'<function prettydate>'
p224
sS'Crud'
p225
S"<class 'gluon.tools.Crud'>"
p226
sS'Auth'
p227
S"<class 'gluon.tools.Auth'>"
p228
sS'DEVELOPMENT_MENU'
p229
g184
sS'__builtins__'
p230
S"{'ArithmeticError': <type 'exceptions.ArithmeticError'>, 'AssertionError': <type 'exceptions.AssertionError'>, 'AttributeError': <type 'exceptions.AttributeError'>, 'BaseException': <type 'exceptions.BaseException'>, 'BufferError': <type 'exceptions.BufferError'>, 'BytesWarning': <type 'exceptions.BytesWarning'>, 'DeprecationWarning': <type 'exceptions.DeprecationWarning'>, 'EOFError': <type 'exceptions.EOFError'>, 'Ellipsis': Ellipsis, 'EnvironmentError': <type 'exceptions.EnvironmentError'>, ...}"
p231
sS'HTML'
p232
S"<class 'gluon.html.HTML'>"
p233
sS'SQLFORM'
p234
S"<class 'gluon.sqlhtml.SQLFORM'>"
p235
sS'LOAD'
p236
S'<function LOAD>'
p237
sS'redirect'
p238
S'<function redirect>'
p239
sS'FIELDSET'
p240
S"<class 'gluon.html.FIELDSET'>"
p241
sS'IS_EQUAL_TO'
p242
S"<class 'gluon.validators.IS_EQUAL_TO'>"
p243
sS'embed64'
p244
S'<function embed64>'
p245
sS'logout'
p246
S'<gluon.html.A object>'
p247
sS'IS_LIST_OF'
p248
S"<class 'gluon.validators.IS_LIST_OF'>"
p249
sS'__name__'
p250
S"'__restricted__'"
p251
sS'EMBED'
p252
S"<class 'gluon.html.EMBED'>"
p253
sS'_'
S'<function _>'
p254
sS'search'
p255
S'None'
p256
sS'H2'
p257
S"<class 'gluon.html.H2'>"
p258
sS'H3'
p259
S"<class 'gluon.html.H3'>"
p260
sS'BUTTON'
p261
S"<class 'gluon.html.BUTTON'>"
p262
sS'H1'
p263
S"<class 'gluon.html.H1'>"
p264
sS'H6'
p265
S"<class 'gluon.html.H6'>"
p266
sS'ob'
p267
S"'bhagdad'"
p268
sS'H4'
p269
S"<class 'gluon.html.H4'>"
p270
sS'H5'
p271
S"<class 'gluon.html.H5'>"
p272
sS'UL'
p273
S"<class 'gluon.html.UL'>"
p274
sS'IS_UPPER'
p275
S"<class 'gluon.validators.IS_UPPER'>"
p276
sS'xmlescape'
p277
S'<function xmlescape>'
p278
sS'IS_TIME'
p279
S"<class 'gluon.validators.IS_TIME'>"
p280
sS'OPTION'
p281
S"<class 'gluon.html.OPTION'>"
p282
sS'TITLE'
p283
S"<class 'gluon.html.TITLE'>"
p284
sS'CRYPT'
p285
S"<class 'gluon.validators.CRYPT'>"
p286
sS'IS_EMPTY_OR'
p287
S"<class 'gluon.validators.IS_EMPTY_OR'>"
p288
sS'MARKMIN'
p289
S"<class 'gluon.html.MARKMIN'>"
p290
sS'done'
p291
S'1L'
p292
sS'INPUT'
p293
S"<class 'gluon.html.INPUT'>"
p294
sS'poll'
p295
S'0L'
p296
sS'COL'
p297
S"<class 'gluon.html.COL'>"
p298
sS'score'
p299
S'-140L'
p300
sS'service'
p301
S'<gluon.tools.Service object>'
p302
sS'SCRIPT'
p303
S"<class 'gluon.html.SCRIPT'>"
p304
sS'TABLE'
p305
S"<class 'gluon.html.TABLE'>"
p306
sS'IS_IPV4'
p307
S"<class 'gluon.validators.IS_IPV4'>"
p308
sS'IS_LENGTH'
p309
S"<class 'gluon.validators.IS_LENGTH'>"
p310
sS'IS_IPV6'
p311
S"<class 'gluon.validators.IS_IPV6'>"
p312
sS'XML'
p313
S"<class 'gluon.html.XML'>"
p314
sS'B'
S"<class 'gluon.html.B'>"
p315
sS'IMG'
p316
S"<class 'gluon.html.IMG'>"
p317
sS'SQLTABLE'
p318
S"<class 'gluon.sqlhtml.SQLTABLE'>"
p319
sS'IS_MATCH'
p320
S"<class 'gluon.validators.IS_MATCH'>"
p321
sS'IS_ALPHANUMERIC'
p322
S"<class 'gluon.validators.IS_ALPHANUMERIC'>"
p323
sS'sorted_list'
p324
S"[<Row {'fiftyfifty': 0L, 'name': 'achaitanya', 'score': -140L, 'done': 1L, 'poll': 0L, 'id': 1L}>, <Row {'fiftyfifty': 0L, 'name': 'acs', 'score': 0L, 'done': 0L, 'poll': 0L, 'id': 2L}>]"
p325
sS'count'
p326
S'2'
sS'SPAN'
p327
S"<class 'gluon.html.SPAN'>"
p328
sS'IS_JSON'
p329
S"<class 'gluon.validators.IS_JSON'>"
p330
sS'IS_IPADDRESS'
p331
S"<class 'gluon.validators.IS_IPADDRESS'>"
p332
sS'j'
S'1'
sS'IS_SLUG'
p333
S"<class 'gluon.validators.IS_SLUG'>"
p334
sS'BEAUTIFY'
p335
S"<class 'gluon.html.BEAUTIFY'>"
p336
sS'META'
p337
S"<class 'gluon.html.META'>"
p338
sS'od'
p339
S"'islamabad'"
p340
sS'IS_DATE'
p341
S"<class 'gluon.validators.IS_DATE'>"
p342
sS'IS_EMAIL'
p343
S"<class 'gluon.validators.IS_EMAIL'>"
p344
sS'IS_NOT_EMPTY'
p345
S"<class 'gluon.validators.IS_NOT_EMPTY'>"
p346
sS'oc'
p347
S"'istambul'"
p348
sS'TBODY'
p349
S"<class 'gluon.html.TBODY'>"
p350
sS'CAT'
p351
S"<class 'gluon.html.CAT'>"
p352
sS'Field'
p353
S"<class 'gluon.dal.Field'>"
p354
sS'oa'
p355
S"'hyderabad'"
p356
sS'IS_LIST_OF_EMAILS'
p357
S"<class 'gluon.validators.IS_LIST_OF_EMAILS'>"
p358
sS'DIV'
p359
S"<class 'gluon.html.DIV'>"
p360
sS'LEGEND'
p361
S"<class 'gluon.html.LEGEND'>"
p362
sS'IS_FLOAT_IN_RANGE'
p363
S"<class 'gluon.validators.IS_FLOAT_IN_RANGE'>"
p364
sS'COLGROUP'
p365
S"<class 'gluon.html.COLGROUP'>"
p366
sS'DAL'
p367
S"<class 'gluon.dal.DAL'>"
p368
sS'TT'
p369
S"<class 'gluon.html.TT'>"
p370
sS'TR'
p371
S"<class 'gluon.html.TR'>"
p372
sS'LI'
p373
S"<class 'gluon.html.LI'>"
p374
sS'TH'
p375
S"<class 'gluon.html.TH'>"
p376
sS'TD'
p377
S"<class 'gluon.html.TD'>"
p378
sS'PluginManager'
p379
S"<class 'gluon.tools.PluginManager'>"
p380
sS'IS_URL'
p381
S"<class 'gluon.validators.IS_URL'>"
p382
sS'A'
S"<class 'gluon.html.A'>"
p383
sS'HEAD'
p384
S"<class 'gluon.html.HEAD'>"
p385
sS'IS_DATETIME_IN_RANGE'
p386
S"<class 'gluon.validators.IS_DATETIME_IN_RANGE'>"
p387
sS'FORM'
p388
S"<class 'gluon.html.FORM'>"
p389
sS'I'
S"<class 'gluon.html.I'>"
p390
sS'crud'
p391
S'<gluon.tools.Crud object>'
p392
sS'IS_NOT_IN_DB'
p393
S"<class 'gluon.validators.IS_NOT_IN_DB'>"
p394
sg121
S"<Storage {'body': <cStringIO.StringO object at 0...fb0208a2500>, 'view': 'default/start_quiz.html'}>"
p395
sS'THEAD'
p396
S"<class 'gluon.html.THEAD'>"
p397
sS'ANY_OF'
p398
S"<class 'gluon.validators.ANY_OF'>"
p399
sS'IS_NULL_OR'
p400
S"<class 'gluon.validators.IS_EMPTY_OR'>"
p401
sS'i'
S'0'
sg56
S"<Storage {'_vars': None, 'function': 'start_quiz...me/chaitanya/Desktop/web2py/applications/quiz/'}>"
p402
sS'IS_EXPR'
p403
S"<class 'gluon.validators.IS_EXPR'>"
p404
sS'T'
S'<gluon.languages.translator object>'
p405
sS'q'
S"'What is capital of pakistan'"
p406
sS'IS_IN_SET'
p407
S"<class 'gluon.validators.IS_IN_SET'>"
p408
sS'IS_UPLOAD_FILENAME'
p409
S"<class 'gluon.validators.IS_UPLOAD_FILENAME'>"
p410
sS'IS_DECIMAL_IN_RANGE'
p411
S"<class 'gluon.validators.IS_DECIMAL_IN_RANGE'>"
p412
sssS'traceback'
p413
S'Traceback (most recent call last):\n  File "/home/chaitanya/Desktop/web2py/gluon/restricted.py", line 217, in restricted\n    exec ccode in environment\n  File "/home/chaitanya/Desktop/web2py/applications/quiz/views/default/start_quiz.html", line 20, in <module>\n    }\nTypeError: startswith first arg must be str, unicode, or tuple, not NoneType\n'
p414
s.