(dp1
S'output'
p2
S'missing "pass" in view'
p3
sS'layer'
p4
S'ParserContainer'
p5
sS'code'
p6
S'dic=[]\nfor i in range(count):\n    dic.append(rec[i])\n    pass\nresponse.write(\'\\n\', escape=False)\nsorted_list = sorted(dic, key=lambda k: k[\'score\'])\nresponse.write(\'\\n<html>\\n\\t<title>\\n\\tQUIZ\\n\\t</title>\\n\\t<body style="background-color:#999;">\\n\\t\\t  <div style="background-color:#999;margin:0;height:5%;">\\n\\t\\t\\t<h5 style="float:left;margin:0;padding-right:100px;padding-left:500px;padding-top:5px;">\\n\\t\\t\\tWelcome To Quiz\\n\\t\\t\\t</h5>\\n\\t\\t\\t<h6 style="text-align:right;margin:0;padding-right:50px;padding-top:5px;">\\n\\t\\t\\t\', escape=False)\nresponse.write(logout)\nresponse.write(\'\\n\\t\\t\\t</h6>\\n\\t\\t  </div>\\n\\t\\t\\t<div style="padding-top:0px;">\\n\\t\\t\\t\\t<div id="lef" align:center; style="background-color:red;">\\n\\t\\t\\t\\t<center>Stats</center>\\n\\t\\t\\t\\t<form>\\n\\t\\t\\t\\t<center><input type="text" style="width:33%;"></input></center>\\n\\t\\t\\t\\t</form>\\n\\t\\t\\t\\t\', escape=False)\nfor i in range(count):\n    j=i+1\n    print j.\n    response.write(\'\\n\\t\\t\\t\\t</div>\\n\\t\\t\\t\\t<div id="cen" align:center; style="background-color:#E7E7E7;">\\n\\t\\t\\t\\t\\t\', escape=False)\n    q_no=done+1\n    response.write(\'\\n\\t\\t  \\t\\t\\t<center><h3>Q\', escape=False)\n    response.write(q_no)\n    response.write(\'. \', escape=False)\n    response.write(q)\n    response.write(\'\\n\\t\\t\\t\\t\\t</h3></center>\\n\\t\\t\\t\\t\\t<br>\\n\\t\\t\\t\\t\\t<div id="null"></div>\\n      <div id="optiona" class="op" style="cursor:pointer;" onclick=\\\'window.location="\', escape=False)\n    response.write(URL(\'default\',\'start_quiz/optiona\'))\n    response.write(\'";\\\'>A. \', escape=False)\n    response.write(oa)\n    response.write(\'</div>\\n      <div id="optionb" class="op" style="cursor:pointer;" onclick=\\\'window.location="\', escape=False)\n    response.write(URL(\'default\',\'start_quiz/optionb\'))\n    response.write(\'";\\\'>B. \', escape=False)\n    response.write(ob)\n    response.write(\'</div><br><br><div id="null"></div>\\n      <div id="optionc" class="op" style="cursor:pointer;" onclick=\\\'window.location="\', escape=False)\n    response.write(URL(\'default\',\'start_quiz/optionc\'))\n    response.write(\'";\\\'>C. \', escape=False)\n    response.write(oc)\n    response.write(\'</div>\\n      <div id="optiond" class="op" style="cursor:pointer;" onclick=\\\'window.location="\', escape=False)\n    response.write(URL(\'default\',\'start_quiz/optiond\'))\n    response.write(\'";\\\'>D. \', escape=False)\n    response.write(od)\n    response.write(\'</div>\\n\\t\\t\\t\\t<div><br><br><hr width="63%"></div>\\n\\t\\t\\t\\t<center><h5>Need help? No problem you still have :</h5></center>\\n\\t\\t\\t\\t<br>\\n\\t\\t\\t\\t<div id="null"></div>\\n\\t<div id="optiona" class="op" style="cursor:pointer;" onclick=\\\'window.location="\', escape=False)\n    response.write(URL(\'default\',\'start_quiz/50/50\'))\n    response.write(\'";\\\'>50/50 * \', escape=False)\n    response.write(fifty)\n    response.write(\'</div>\\n\\t<div id="optionb" class="op" style="cursor:pointer;" onclick=\\\'window.location="\', escape=False)\n    response.write(URL(\'default\',\'start_quiz/poll\'))\n    response.write(\'";\\\'>Audience poll * \', escape=False)\n    response.write(poll)\n    response.write(\'</div><br><br><div id="null"></div>\\n\\n\\t\\t\\t\\t<!--div>For hints.....</div-->\\n      \\t\\t\\t\\t</div>\\n\\t\\t\\t\\t<div id="rig" align:center; style="background-color:yellow;">\\n\\t\\t\\t\\t\\t<div id="score" style="background-color:#333;">\\n\\t\\t\\t\\t\\t<h5 style="margin:0;color:white">\\n\\t\\t\\t\\t\\t<center style="padding-top:8px;">Hai \', escape=False)\n    response.write(name)\n    response.write(\'</center>\\n\\t\\t\\t\\t\\t<br>\\n\\t\\t\\t\\t\\tTotal Questions : 20\\n\\t\\t\\t\\t\\t<br><br>\\n\\t\\t\\t\\t\\tCorrectly Done : \', escape=False)\n    response.write(done)\n    response.write(\'\\n\\t\\t\\t\\t\\t<br></br>\\n\\t\\t\\t\\t\\tYour Score : \', escape=False)\n    response.write(score)\n    response.write(\'\\n\\t\\t\\t\\t\\t<br><br>\\n\\t\\t\\t\\t\\tYour position : 1\\n\\t\\t\\t\\t\\t</h5>\\n\\t\\t\\t\\t\\t</div>\\n\\t\\t\\t\\t\\t<h5 style="margin:0;padding-top:8px;"><center>Get Tools</center>\\n\\t\\t\\t\\t\\t<br>\\n\\t\\t\\t\\t\\t<span>50/50    @ 5 points</span>\\n\\t\\t\\t\\t\\t<br><br>\\n\\t\\t\\t\\t\\t<span>Audience Poll @ 8 points</span>\\n\\t\\t\\t\\t\\t</h5>\\n\\t\\t\\t\\t</div>\\n\\n\\t\\t\\t</div>\\n\\t\\t\\t<div id="dow" style="padding-top:0px;width:100%;">\\n\\t\\t\\t          <h5 style="text-align:center;">\\n\\t\\t\\t\\t  \\xc2\\xa9Winux 2014\\n\\t\\t\\t\\t  </h5>\\n\\t\\t\\t</div>\\n\\t</body>\\n<style>\\na{ text-decoration:none;\\n}\\nspan{\\ncursor:pointer;\\n}\\nspan:hover{color:blue;}\\nbody{\\nwidth:100%;\\nheight:95%;\\nmargin: 0;\\n} \\n#lef,#cen,#rig{\\nfloat:left;\\nheight:95%;\\n}\\n#lef{\\nwidth:20%;\\n}\\n#cen{\\nwidth:60%;\\n}\\n#rig{\\nwidth:20%;\\n}\\n#score{\\nwidth:100%;\\nheight:33%;\\n}\\n#dow{\\nheight:12%;\\n}\\n#null{\\nfloat:left;\\nwidth:10%;\\nheight:5%;\\npadding-left:30px;\\npadding-right:30px;\\nmargin:0;\\n}\\n#optiona{\\nfloat:left;\\nwidth:20%;\\nheight:5%;\\npadding-left:80px;\\npadding-right:30px;\\npadding-top:5px;\\nmargin:0;\\n}\\n#optionb{\\nfloat:left;\\nwidth:20%;\\nheight:5%;\\npadding-left:60px;\\npadding-right:30px;\\npadding-top:5px;\\nmargin:0;\\n}\\n#optionc{\\nfloat:left;\\nwidth:20%;\\nheight:5%;\\npadding-left:80px;\\npadding-right:30px;\\npadding-top:5px;\\nmargin:0;\\n}\\n#optiond{\\nfloat:left;\\nwidth:20%;\\nheight:5%;\\npadding-left:60px;\\npadding-right:30px;\\npadding-top:5px;\\nmargin:0;\\n}\\nh3{font-family:"Times New Roman", Times, serif}\\n.op:hover{background-color:blue;}\\n</style>\\n</html>\\n\', escape=False)'
p7
sS'snapshot'
p8
(dp9
S'exception'
p10
(dp11
S'__module__'
p12
S"'gluon.rocket'"
p13
sS'__getslice__'
p14
S"<method-wrapper '__getslice__' of SocketTimeout object>"
p15
sS'__str__'
p16
S"<method-wrapper '__str__' of SocketTimeout object>"
p17
sS'__reduce__'
p18
S'<built-in method __reduce__ of SocketTimeout object>'
p19
sS'__dict__'
p20
S'{}'
p21
sS'__sizeof__'
p22
S'<built-in method __sizeof__ of SocketTimeout object>'
p23
sS'__weakref__'
p24
S'None'
p25
sS'__init__'
p26
S"<method-wrapper '__init__' of SocketTimeout object>"
p27
sS'__setattr__'
p28
S"<method-wrapper '__setattr__' of SocketTimeout object>"
p29
sS'__reduce_ex__'
p30
S'<built-in method __reduce_ex__ of SocketTimeout object>'
p31
sS'__new__'
p32
S'<built-in method __new__ of type object>'
p33
sS'__format__'
p34
S'<built-in method __format__ of SocketTimeout object>'
p35
sS'__class__'
p36
S"<class 'gluon.rocket.SocketTimeout'>"
p37
sS'__doc__'
p38
S"'Exception for when a socket times out between requests.'"
p39
sS'__getitem__'
p40
S"<method-wrapper '__getitem__' of SocketTimeout object>"
p41
sS'__setstate__'
p42
S'<built-in method __setstate__ of SocketTimeout object>'
p43
sS'__getattribute__'
p44
S"<method-wrapper '__getattribute__' of SocketTimeout object>"
p45
sS'args'
p46
S"('Socket timed out before request.',)"
p47
sS'__subclasshook__'
p48
S'<built-in method __subclasshook__ of type object>'
p49
sS'__unicode__'
p50
S'<built-in method __unicode__ of SocketTimeout object>'
p51
sS'__delattr__'
p52
S"<method-wrapper '__delattr__' of SocketTimeout object>"
p53
sS'__repr__'
p54
S"<method-wrapper '__repr__' of SocketTimeout object>"
p55
sS'__hash__'
p56
S"<method-wrapper '__hash__' of SocketTimeout object>"
p57
ssS'evalue'
p58
S'Socket timed out before request.'
p59
sS'frames'
p60
(lp61
(dp62
S'file'
p63
S'/home/chaitanya/Desktop/web2py/gluon/rocket.py'
p64
sS'dump'
p65
(dp66
S'self'
p67
S'<WSGIWorker(Thread-10, started daemon 140394511701760)>'
p68
sS'conn'
p69
S'<gluon.rocket.Connection object>'
p70
sS'self.run_app'
p71
S'<bound method WSGIWorker.run_app of <WSGIWorker(Thread-10, started daemon 140394511701760)>>'
p72
ssS'lnum'
p73
I1337
sS'lines'
p74
(dp75
I1332
S'            # Enter connection serve loop'
p76
sI1333
S'            while True:'
p77
sI1334
S'                if __debug__:'
p78
sI1335
S"                    self.err_log.debug('Serving a request')"
p79
sI1336
S'                try:'
p80
sI1337
S'                    self.run_app(conn)'
p81
sI1338
S'                except:'
p82
sI1339
S'                    exc = sys.exc_info()'
p83
sI1340
S'                    handled = self._handleError(*exc)'
p84
sI1341
S'                    if handled:'
p85
ssS'call'
p86
S'(self=<WSGIWorker(Thread-10, started daemon 140394511701760)>)'
p87
sS'func'
p88
S'run'
p89
sa(dp90
g63
S'/home/chaitanya/Desktop/web2py/gluon/rocket.py'
p91
sg65
(dp92
S'self'
p93
S'<WSGIWorker(Thread-10, started daemon 140394511701760)>'
p94
sS'self.environ'
p95
S"{'HTTP_ACCEPT': 'text/html,application/xhtml+xml,application/xml;q=0.9,*/*;q=0.8', 'HTTP_ACCEPT_ENCODING': 'gzip, deflate', 'HTTP_ACCEPT_LANGUAGE': 'en-US,en;q=0.5', 'HTTP_CACHE_CONTROL': 'max-age=0', 'HTTP_CONNECTION': 'keep-alive', 'HTTP_COOKIE': 'session_id_welcome=127.0.0.1-fb107e96-388a-42d6-...in=127.0.0.1-77f1b8ff-77c6-47bf-b4e2-8cf637c09c60', 'HTTP_HOST': '127.0.0.1:8000', 'HTTP_REFERER': 'http://127.0.0.1:8000/quiz/default/start_quiz', 'HTTP_USER_AGENT': 'Mozilla/5.0 (X11; Ubuntu; Linux x86_64; rv:28.0) Gecko/20100101 Firefox/28.0', 'PATH_INFO': '/quiz/default/start_quiz', ...}"
p96
sS'sock_file'
p97
S'<socket._fileobject object>'
p98
sS'environ'
p99
S'undefined'
p100
sS'self.build_environ'
p101
S'<bound method WSGIWorker.build_environ of <WSGIWorker(Thread-10, started daemon 140394511701760)>>'
p102
sS'conn'
p103
S'<gluon.rocket.Connection object>'
p104
ssg73
I1830
sg74
(dp105
I1825
S'        else:'
p106
sI1826
S'            sock_file = conn.makefile(BUF_SIZE)'
p107
sI1827
S''
sI1828
S'        try:'
p108
sI1829
S'            # Read the headers and build our WSGI environment'
p109
sI1830
S'            self.environ = environ = self.build_environ(sock_file, conn)'
p110
sI1831
S''
sI1832
S'            # Handle 100 Continue'
p111
sI1833
S"            if environ.get('HTTP_EXPECT', '') == '100-continue':"
p112
sI1834
S"                res = environ['SERVER_PROTOCOL'] + ' 100 Continue\\r\\n\\r\\n'"
p113
ssg86
S'(self=<WSGIWorker(Thread-10, started daemon 140394511701760)>, conn=<gluon.rocket.Connection object>)'
p114
sg88
S'run_app'
p115
sa(dp116
g63
S'/home/chaitanya/Desktop/web2py/gluon/rocket.py'
p117
sg65
(dp118
S'sock_file'
p119
S'<socket._fileobject object>'
p120
sS'self.read_request_line'
p121
S'<bound method WSGIWorker.read_request_line of <W...rker(Thread-10, started daemon 140394511701760)>>'
p122
sS'self'
p123
S'<WSGIWorker(Thread-10, started daemon 140394511701760)>'
p124
sS'request'
p125
g100
ssg73
I1650
sg74
(dp126
I1645
S'                                      "wsgiorg.futures": executor.futures})'
p127
sI1646
S''
sI1647
S'    def build_environ(self, sock_file, conn):'
p128
sI1648
S'        """ Build the execution environment. """'
p129
sI1649
S'        # Grab the request line'
p130
sI1650
S'        request = self.read_request_line(sock_file)'
p131
sI1651
S''
sI1652
S'        # Copy the Base Environment'
p132
sI1653
S'        environ = self.base_environ.copy()'
p133
sI1654
S''
ssg86
S'(self=<WSGIWorker(Thread-10, started daemon 140394511701760)>, sock_file=<socket._fileobject object>, conn=<gluon.rocket.Connection object>)'
p134
sg88
S'build_environ'
p135
sa(dp136
g63
S'/home/chaitanya/Desktop/web2py/gluon/rocket.py'
p137
sg65
(dp138
S'global SocketTimeout'
p139
S"<class 'gluon.rocket.SocketTimeout'>"
p140
ssg73
I1401
sg74
(dp141
I1396
S''
sI1397
S'                d = sock_file.readline()'
p142
sI1398
S'                if PY3K:'
p143
sI1399
S"                    d = d.decode('ISO-8859-1')"
p144
sI1400
S'        except socket.timeout:'
p145
sI1401
S"            raise SocketTimeout('Socket timed out before request.')"
p146
sI1402
S'        except TypeError:'
p147
sI1403
S'            raise SocketClosed('
p148
sI1404
S"                'SSL bug caused closure of socket.  See '"
p149
sI1405
S'                \'"https://groups.google.com/d/topic/web2py/P_Gw0JxWzCs".\')'
p150
ssg86
S'(self=<WSGIWorker(Thread-10, started daemon 140394511701760)>, sock_file=<socket._fileobject object>)'
p151
sg88
S'read_request_line'
p152
sasS'pyver'
p153
S'Python 2.7.3: /usr/bin/python (prefix: /usr)'
p154
sS'etype'
p155
S"<class 'gluon.rocket.SocketTimeout'>"
p156
sS'date'
p157
S'Fri Mar 28 14:44:00 2014'
p158
sS'locals'
p159
(dp160
S'sock_file'
p161
S'<socket._fileobject object>'
p162
sS'self'
p163
S'<WSGIWorker(Thread-10, started daemon 140394511701760)>'
p164
sssS'traceback'
p165
S'Traceback (most recent call last):\n  File "/home/chaitanya/Desktop/web2py/gluon/rocket.py", line 1337, in run\n    self.run_app(conn)\n  File "/home/chaitanya/Desktop/web2py/gluon/rocket.py", line 1830, in run_app\n    self.environ = environ = self.build_environ(sock_file, conn)\n  File "/home/chaitanya/Desktop/web2py/gluon/rocket.py", line 1650, in build_environ\n    request = self.read_request_line(sock_file)\n  File "/home/chaitanya/Desktop/web2py/gluon/rocket.py", line 1401, in read_request_line\n    raise SocketTimeout(\'Socket timed out before request.\')\nSocketTimeout: Socket timed out before request.\n'
p166
s.